; ModuleID = 'source-C-CXX/52/71.c'
source_filename = "source-C-CXX/52/71.c"
target datalayout = "e-m:e-p270:32:32-p271:32:32-p272:64:64-i64:64-f80:128-n8:16:32:64-S128"
target triple = "x86_64-pc-linux-gnu"

@.str = private unnamed_addr constant [3 x i8] c"%d\00", align 1
@.str.1 = private unnamed_addr constant [4 x i8] c"%d,\00", align 1

; Function Attrs: nofree nounwind sspstrong uwtable
define dso_local void @main() local_unnamed_addr #0 {
  %1 = alloca i32, align 4
  %2 = alloca [300 x i32], align 16
  %3 = alloca [300 x i32], align 16
  %4 = bitcast i32* %1 to i8*
  call void @llvm.lifetime.start.p0i8(i64 4, i8* nonnull %4) #4
  %5 = bitcast [300 x i32]* %2 to i8*
  call void @llvm.lifetime.start.p0i8(i64 1200, i8* nonnull %5) #4
  %6 = bitcast [300 x i32]* %3 to i8*
  call void @llvm.lifetime.start.p0i8(i64 1200, i8* nonnull %6) #4
  call void @llvm.memset.p0i8.i64(i8* noundef nonnull align 16 dereferenceable(1200) %6, i8 0, i64 1200, i1 false)
  %7 = call i32 (i8*, ...) @__isoc99_scanf(i8* getelementptr inbounds ([3 x i8], [3 x i8]* @.str, i64 0, i64 0), i32* nonnull %1)
  %8 = load i32, i32* %1, align 4, !tbaa !5
  %9 = icmp sgt i32 %8, 0
  br i1 %9, label %14, label %63

10:                                               ; preds = %14
  %11 = icmp sgt i32 %19, 0
  br i1 %11, label %12, label %63

12:                                               ; preds = %10
  %13 = zext i32 %19 to i64
  br label %22

14:                                               ; preds = %0, %14
  %15 = phi i64 [ %18, %14 ], [ 0, %0 ]
  %16 = getelementptr inbounds [300 x i32], [300 x i32]* %2, i64 0, i64 %15
  %17 = call i32 (i8*, ...) @__isoc99_scanf(i8* getelementptr inbounds ([3 x i8], [3 x i8]* @.str, i64 0, i64 0), i32* nonnull %16)
  %18 = add nuw nsw i64 %15, 1
  %19 = load i32, i32* %1, align 4, !tbaa !5
  %20 = sext i32 %19 to i64
  %21 = icmp slt i64 %18, %20
  br i1 %21, label %14, label %10, !llvm.loop !9

22:                                               ; preds = %12, %49
  %23 = phi i64 [ 0, %12 ], [ %51, %49 ]
  %24 = phi i32 [ 0, %12 ], [ %50, %49 ]
  %25 = icmp slt i32 %24, 0
  %26 = getelementptr inbounds [300 x i32], [300 x i32]* %2, i64 0, i64 %23
  %27 = load i32, i32* %26, align 4, !tbaa !5
  %28 = add i32 %24, 1
  br i1 %25, label %46, label %29

29:                                               ; preds = %22
  %30 = zext i32 %28 to i64
  br label %41

31:                                               ; preds = %49
  %32 = icmp sgt i32 %50, 0
  br i1 %32, label %33, label %63

33:                                               ; preds = %31
  %34 = add nsw i32 %50, -1
  %35 = zext i32 %34 to i64
  %36 = zext i32 %50 to i64
  %37 = getelementptr inbounds [300 x i32], [300 x i32]* %3, i64 0, i64 %35
  br label %53

38:                                               ; preds = %41
  %39 = add nuw nsw i64 %42, 1
  %40 = icmp eq i64 %39, %30
  br i1 %40, label %46, label %41, !llvm.loop !11

41:                                               ; preds = %29, %38
  %42 = phi i64 [ 0, %29 ], [ %39, %38 ]
  %43 = getelementptr inbounds [300 x i32], [300 x i32]* %3, i64 0, i64 %42
  %44 = load i32, i32* %43, align 4, !tbaa !5
  %45 = icmp eq i32 %44, %27
  br i1 %45, label %49, label %38

46:                                               ; preds = %38, %22
  %47 = sext i32 %24 to i64
  %48 = getelementptr inbounds [300 x i32], [300 x i32]* %3, i64 0, i64 %47
  store i32 %27, i32* %48, align 4, !tbaa !5
  br label %49

49:                                               ; preds = %41, %46
  %50 = phi i32 [ %28, %46 ], [ %24, %41 ]
  %51 = add nuw nsw i64 %23, 1
  %52 = icmp eq i64 %51, %13
  br i1 %52, label %31, label %22, !llvm.loop !12

53:                                               ; preds = %33, %53
  %54 = phi i64 [ 0, %33 ], [ %61, %53 ]
  %55 = icmp eq i64 %54, %35
  %56 = getelementptr inbounds [300 x i32], [300 x i32]* %3, i64 0, i64 %54
  %57 = select i1 %55, i32* %37, i32* %56
  %58 = select i1 %55, i8* getelementptr inbounds ([3 x i8], [3 x i8]* @.str, i64 0, i64 0), i8* getelementptr inbounds ([4 x i8], [4 x i8]* @.str.1, i64 0, i64 0)
  %59 = load i32, i32* %57, align 4, !tbaa !5
  %60 = call i32 (i8*, ...) @printf(i8* nonnull dereferenceable(1) %58, i32 %59)
  %61 = add nuw nsw i64 %54, 1
  %62 = icmp eq i64 %61, %36
  br i1 %62, label %63, label %53, !llvm.loop !13

63:                                               ; preds = %53, %0, %10, %31
  call void @llvm.lifetime.end.p0i8(i64 1200, i8* nonnull %6) #4
  call void @llvm.lifetime.end.p0i8(i64 1200, i8* nonnull %5) #4
  call void @llvm.lifetime.end.p0i8(i64 4, i8* nonnull %4) #4
  ret void
}

; Function Attrs: argmemonly mustprogress nofree nosync nounwind willreturn
declare void @llvm.lifetime.start.p0i8(i64 immarg, i8* nocapture) #1

; Function Attrs: argmemonly mustprogress nofree nounwind willreturn writeonly
declare void @llvm.memset.p0i8.i64(i8* nocapture writeonly, i8, i64, i1 immarg) #2

; Function Attrs: nofree nounwind
declare noundef i32 @__isoc99_scanf(i8* nocapture noundef readonly, ...) local_unnamed_addr #3

; Function Attrs: nofree nounwind
declare noundef i32 @printf(i8* nocapture noundef readonly, ...) local_unnamed_addr #3

; Function Attrs: argmemonly mustprogress nofree nosync nounwind willreturn
declare void @llvm.lifetime.end.p0i8(i64 immarg, i8* nocapture) #1


!llvm.module.flags = !{!0, !1, !2, !3}
!llvm.ident = !{!4}

!0 = !{i32 1, !"wchar_size", i32 4}
!1 = !{i32 7, !"PIC Level", i32 2}
!2 = !{i32 7, !"PIE Level", i32 2}
!3 = !{i32 7, !"uwtable", i32 1}
!4 = !{!"clang version 13.0.0"}
!5 = !{!6, !6, i64 0}
!6 = !{!"int", !7, i64 0}
!7 = !{!"omnipotent char", !8, i64 0}
!8 = !{!"Simple C/C++ TBAA"}
!9 = distinct !{!9, !10}
!10 = !{!"llvm.loop.mustprogress"}
!11 = distinct !{!11, !10}
!12 = distinct !{!12, !10}
!13 = distinct !{!13, !10}
